; Function Attrs: mustprogress nofree norecurse nosync nounwind willreturn memory(argmem: readwrite) uwtable
define hidden void @_ZN2cv6detail8tracking15contrib_feature15CvFeatureParams4initERKS3_(ptr noundef nonnull writeonly align 8 captures(none) dereferenceable(52) initializes((40, 52)) %0, ptr noundef nonnull readonly align 8 captures(none) dereferenceable(52) %1) unnamed_addr #3 align 2 {
  %3 = getelementptr inbounds nuw i8, ptr %1, i64 40
  %4 = load i32, ptr %3, align 8, !tbaa !39
  %5 = getelementptr inbounds nuw i8, ptr %0, i64 40
  store i32 %4, ptr %5, align 8, !tbaa !39
  %6 = getelementptr inbounds nuw i8, ptr %1, i64 44
  %7 = load i32, ptr %6, align 4, !tbaa !42
  %8 = getelementptr inbounds nuw i8, ptr %0, i64 44
  store i32 %7, ptr %8, align 4, !tbaa !42
  %9 = getelementptr inbounds nuw i8, ptr %1, i64 48
  %10 = load i32, ptr %9, align 8, !tbaa !43
  %11 = getelementptr inbounds nuw i8, ptr %0, i64 48
  store i32 %10, ptr %11, align 8, !tbaa !43
  ret void
}